target datalayout = "e-m:e-p270:32:32-p271:32:32-p272:64:64-i64:64-i128:128-f80:128-n8:16:32:64-S128"
target triple = "x86_64-pc-linux-gnu"

%"class.g2o::EstimatePropagatorCost" = type { ptr, ptr }

; Function Attrs: mustprogress uwtable
define void @_ZN3g2o15SparseOptimizer19computeInitialGuessEv(ptr noundef nonnull align 8 dereferenceable(409) %0) unnamed_addr #5 align 2 {
  %2 = alloca ptr, align 8
  %3 = alloca %"class.g2o::EstimatePropagatorCost", align 8
  store ptr %0, ptr %2, align 8
  %4 = load ptr, ptr %2, align 8
  call void @_ZN3g2o22EstimatePropagatorCostC1EPNS_15SparseOptimizerE(ptr noundef nonnull align 8 dereferenceable(16) %3, ptr noundef %4)
  %5 = load ptr, ptr %4, align 8
  %6 = getelementptr inbounds ptr, ptr %5, i64 30
  %7 = load ptr, ptr %6, align 8
  call void %7(ptr noundef nonnull align 8 dereferenceable(409) %4, ptr noundef nonnull align 8 dereferenceable(16) %3)
  ret void
}