; Function Attrs: mustprogress uwtable
define void @_ZN3g2o15SparseOptimizer19computeInitialGuessEv(ptr noundef nonnull align 8 dereferenceable(409) %0) unnamed_addr #3 align 2 {
  %2 = alloca %"class.g2o::EstimatePropagatorCost", align 8
  call void @_ZN3g2o22EstimatePropagatorCostC1EPNS_15SparseOptimizerE(ptr noundef nonnull align 8 dereferenceable(16) %2, ptr noundef nonnull %0)
  %3 = load ptr, ptr %0, align 8
  %4 = getelementptr inbounds i8, ptr %3, i64 240
  %5 = load ptr, ptr %4, align 8
  call void %5(ptr noundef nonnull align 8 dereferenceable(409) %0, ptr noundef nonnull align 8 dereferenceable(16) %2)
  ret void
}